; Function Attrs: mustprogress uwtable
define hidden void @_ZN2cv10PngDecoder6row_fnEP14png_struct_defPhji(ptr noundef %0, ptr noundef %1, i32 noundef %2, i32 %3) #5 align 2 {
  %5 = tail call ptr @png_get_progressive_ptr(ptr noundef %0)
  %6 = getelementptr inbounds nuw i8, ptr %5, i64 1064
  %7 = zext i32 %2 to i64
  %8 = load ptr, ptr %6, align 8, !tbaa !19
  %9 = getelementptr inbounds nuw ptr, ptr %8, i64 %7
  %10 = load ptr, ptr %9, align 8, !tbaa !36
  tail call void @png_progressive_combine_row(ptr noundef %0, ptr noundef %10, ptr noundef %1)
  ret void
}